	.file	"sample_strlen.c"
	.intel_syntax noprefix
	.text
.Ltext0:
	.section	.rodata.str1.1,"aMS",@progbits,1
.LC0:
	.string	"Std. strlen: %zu\n"
	.section	.rodata.str1.8,"aMS",@progbits,1
	.align 8
.LC1:
	.string	"Std. strlen called by asm: %zu\n"
	.section	.rodata.str1.1
.LC2:
	.string	"Primitive asm strlen: %zu\n"
.LC3:
	.string	"Advanced asm strlen: %zu\n"
	.text
	.globl	main
	.type	main, @function
main:
.LFB50:
	.file 1 "sample_strlen.c"
	.loc 1 10 1 view -0
	.cfi_startproc
	endbr64
	push	rbp
	.cfi_def_cfa_offset 16
	.cfi_offset 6, -16
	push	rbx
	.cfi_def_cfa_offset 24
	.cfi_offset 3, -24
	sub	rsp, 8
	.cfi_def_cfa_offset 32
	.loc 1 11 2 view .LVU1
.LVL0:
	.loc 1 12 2 view .LVU2
	.loc 1 12 15 is_stmt 0 view .LVU3
	mov	edi, 100000001
	call	malloc@PLT
.LVL1:
	mov	rbp, rax
.LVL2:
	.loc 1 13 2 is_stmt 1 view .LVU4
	.loc 1 13 10 is_stmt 0 view .LVU5
	mov	BYTE PTR 100000000[rax], 0
	.loc 1 14 2 is_stmt 1 view .LVU6
.LBB11:
	.loc 1 14 6 view .LVU7
.LVL3:
	.loc 1 14 13 is_stmt 0 view .LVU8
	mov	ebx, 0
.LVL4:
.L2:
	.loc 1 14 20 is_stmt 1 discriminator 1 view .LVU9
	.loc 1 14 2 is_stmt 0 discriminator 1 view .LVU10
	cmp	rbx, 99999999
	ja	.L5
	.loc 1 15 3 is_stmt 1 discriminator 3 view .LVU11
	.loc 1 15 13 is_stmt 0 discriminator 3 view .LVU12
	call	rand@PLT
.LVL5:
	.loc 1 15 19 discriminator 3 view .LVU13
	movsx	rdx, eax
	imul	rdx, rdx, -1240768329
	shr	rdx, 32
	add	edx, eax
	sar	edx, 6
	mov	ecx, eax
	sar	ecx, 31
	sub	edx, ecx
	imul	edx, edx, 90
	sub	eax, edx
	mov	edx, eax
	.loc 1 15 22 discriminator 3 view .LVU14
	add	edx, 32
	.loc 1 15 11 discriminator 3 view .LVU15
	mov	BYTE PTR 0[rbp+rbx], dl
	.loc 1 14 26 is_stmt 1 discriminator 3 view .LVU16
	add	rbx, 1
.LVL6:
	.loc 1 14 26 is_stmt 0 discriminator 3 view .LVU17
	jmp	.L2
.L5:
	.loc 1 14 26 discriminator 3 view .LVU18
.LBE11:
	.loc 1 17 2 is_stmt 1 view .LVU19
	.loc 1 17 15 is_stmt 0 view .LVU20
	mov	rcx, -1
	mov	eax, 0
	mov	rdi, rbp
	repnz scasb
.LVL7:
	.loc 1 17 15 view .LVU21
	mov	rax, rcx
	not	rax
	lea	rdx, -1[rax]
.LVL8:
	.loc 1 18 2 is_stmt 1 view .LVU22
.LBB12:
.LBI12:
	.file 2 "/usr/include/x86_64-linux-gnu/bits/stdio2.h"
	.loc 2 105 1 view .LVU23
.LBB13:
	.loc 2 107 3 view .LVU24
	.loc 2 107 10 is_stmt 0 view .LVU25
	lea	rsi, .LC0[rip]
	mov	edi, 1
	mov	eax, 0
	call	__printf_chk@PLT
.LVL9:
	.loc 2 107 10 view .LVU26
.LBE13:
.LBE12:
	.loc 1 20 2 is_stmt 1 view .LVU27
	.loc 1 20 15 is_stmt 0 view .LVU28
	mov	rdi, rbp
	call	my_strlen_strlen@PLT
.LVL10:
	mov	rdx, rax
.LVL11:
	.loc 1 21 2 is_stmt 1 view .LVU29
.LBB14:
.LBI14:
	.loc 2 105 1 view .LVU30
.LBB15:
	.loc 2 107 3 view .LVU31
	.loc 2 107 10 is_stmt 0 view .LVU32
	lea	rsi, .LC1[rip]
	mov	edi, 1
	mov	eax, 0
.LVL12:
	.loc 2 107 10 view .LVU33
	call	__printf_chk@PLT
.LVL13:
	.loc 2 107 10 view .LVU34
.LBE15:
.LBE14:
	.loc 1 23 2 is_stmt 1 view .LVU35
	.loc 1 23 15 is_stmt 0 view .LVU36
	mov	rdi, rbp
	call	my_strlen_primitive@PLT
.LVL14:
	mov	rdx, rax
.LVL15:
	.loc 1 24 2 is_stmt 1 view .LVU37
.LBB16:
.LBI16:
	.loc 2 105 1 view .LVU38
.LBB17:
	.loc 2 107 3 view .LVU39
	.loc 2 107 10 is_stmt 0 view .LVU40
	lea	rsi, .LC2[rip]
	mov	edi, 1
	mov	eax, 0
.LVL16:
	.loc 2 107 10 view .LVU41
	call	__printf_chk@PLT
.LVL17:
	.loc 2 107 10 view .LVU42
.LBE17:
.LBE16:
	.loc 1 26 2 is_stmt 1 view .LVU43
	.loc 1 26 15 is_stmt 0 view .LVU44
	mov	rdi, rbp
	call	my_strlen_adv1@PLT
.LVL18:
	mov	rdx, rax
.LVL19:
	.loc 1 27 2 is_stmt 1 view .LVU45
.LBB18:
.LBI18:
	.loc 2 105 1 view .LVU46
.LBB19:
	.loc 2 107 3 view .LVU47
	.loc 2 107 10 is_stmt 0 view .LVU48
	lea	rsi, .LC3[rip]
	mov	edi, 1
	mov	eax, 0
.LVL20:
	.loc 2 107 10 view .LVU49
	call	__printf_chk@PLT
.LVL21:
	.loc 2 107 10 view .LVU50
.LBE19:
.LBE18:
	.loc 1 28 2 is_stmt 1 view .LVU51
	.loc 1 29 1 is_stmt 0 view .LVU52
	mov	eax, 0
	add	rsp, 8
	.cfi_def_cfa_offset 24
	pop	rbx
	.cfi_def_cfa_offset 16
.LVL22:
	.loc 1 29 1 view .LVU53
	pop	rbp
	.cfi_def_cfa_offset 8
	ret
	.cfi_endproc
.LFE50:
	.size	main, .-main
.Letext0:
	.file 3 "/usr/lib/gcc/x86_64-linux-gnu/9/include/stddef.h"
	.file 4 "/usr/include/x86_64-linux-gnu/bits/types.h"
	.file 5 "/usr/include/x86_64-linux-gnu/bits/types/struct_FILE.h"
	.file 6 "/usr/include/x86_64-linux-gnu/bits/types/FILE.h"
	.file 7 "/usr/include/stdio.h"
	.file 8 "/usr/include/x86_64-linux-gnu/bits/sys_errlist.h"
	.file 9 "/usr/include/stdlib.h"
	.section	.note.GNU-stack,"",@progbits
	.section	.note.gnu.property,"a"
	.align 8
	.long	 1f - 0f
	.long	 4f - 1f
	.long	 5
0:
	.string	 "GNU"
1:
	.align 8
	.long	 0xc0000002
	.long	 3f - 2f
2:
	.long	 0x3
3:
	.align 8
4:
